target datalayout = "e-m:e-p270:32:32-p271:32:32-p272:64:64-i64:64-i128:128-f80:128-n8:16:32:64-S128"
target triple = "x86_64-pc-linux-gnu"

%"struct.std::_Rb_tree_header" = type { %"struct.std::_Rb_tree_node_base", i64 }
%"struct.std::_Rb_tree_node_base" = type { i32, ptr, ptr, ptr }
%"struct.QListData::Data" = type { %"class.QtPrivate::RefCount", i32, i32, i32, [1 x ptr] }
%"class.QtPrivate::RefCount" = type { %class.QBasicAtomicInteger }
%class.QBasicAtomicInteger = type { %"struct.std::atomic" }
%"struct.std::atomic" = type { %"struct.std::__atomic_base" }
%"struct.std::__atomic_base" = type { i32 }
%class.MeshShaderRenderPlugin = type { %class.QObject, %class.RenderPlugin.base, i32, i32, %"class.std::map.16", i8, %class.QList, ptr, %class.MeshLabPlugin, %class.MeshLabPluginLogger }
%class.QObject = type { ptr, %class.QScopedPointer }
%class.QScopedPointer = type { ptr }
%class.RenderPlugin.base = type { ptr }
%"class.std::map.16" = type { %"class.std::_Rb_tree.17" }
%"class.std::_Rb_tree.17" = type { %"struct.std::_Rb_tree<QString, std::pair<const QString, ShaderInfo>, std::_Select1st<std::pair<const QString, ShaderInfo>>, std::less<QString>>::_Rb_tree_impl" }
%"struct.std::_Rb_tree<QString, std::pair<const QString, ShaderInfo>, std::_Select1st<std::pair<const QString, ShaderInfo>>, std::less<QString>>::_Rb_tree_impl" = type { %"struct.std::_Rb_tree_key_compare.21", %"struct.std::_Rb_tree_header" }
%"struct.std::_Rb_tree_key_compare.21" = type { %"struct.std::less.22" }
%"struct.std::less.22" = type { i8 }
%class.QList = type { %union.anon }
%union.anon = type { %struct.QListData }
%struct.QListData = type { ptr }
%class.MeshLabPlugin = type { ptr, i8, %class.QFileInfo }
%class.QFileInfo = type { %class.QSharedDataPointer }
%class.QSharedDataPointer = type { ptr }
%class.MeshLabPluginLogger = type { ptr, ptr }

@_ZN9QListData11shared_nullE = external global %"struct.QListData::Data", align 8
@_ZTV22MeshShaderRenderPlugin = external unnamed_addr constant { [24 x ptr], [12 x ptr], [11 x ptr], [5 x ptr] }, align 8
@_ZTT22MeshShaderRenderPlugin = external unnamed_addr constant [7 x ptr], align 8
@_ZTV13MeshLabPlugin = linkonce_odr unnamed_addr constant { [7 x ptr] } { [7 x ptr] [ptr null, ptr @_ZTI13MeshLabPlugin, ptr @_ZN13MeshLabPluginD2Ev, ptr @_ZN13MeshLabPluginD0Ev, ptr @__cxa_pure_virtual, ptr @__cxa_pure_virtual, ptr @_ZNK13MeshLabPlugin6vendorEv] }, comdat, align 8

; Function Attrs: noreturn nounwind uwtable
define linkonce_odr hidden void @__clang_call_terminate(ptr noundef %0) #9 comdat {
  %2 = call ptr @__cxa_begin_catch(ptr %0) #3
  call void @_ZSt9terminatev() #15
  unreachable
}

; Function Attrs: mustprogress nounwind uwtable
define linkonce_odr void @_ZNSt15_Rb_tree_header8_M_resetEv(ptr noundef nonnull align 8 dereferenceable(40) %0) #4 comdat align 2 {
  %2 = alloca ptr, align 8
  store ptr %0, ptr %2, align 8
  %3 = load ptr, ptr %2, align 8
  %4 = getelementptr inbounds %"struct.std::_Rb_tree_header", ptr %3, i32 0, i32 0
  %5 = getelementptr inbounds %"struct.std::_Rb_tree_node_base", ptr %4, i32 0, i32 1
  store ptr null, ptr %5, align 8
  %6 = getelementptr inbounds %"struct.std::_Rb_tree_header", ptr %3, i32 0, i32 0
  %7 = getelementptr inbounds %"struct.std::_Rb_tree_header", ptr %3, i32 0, i32 0
  %8 = getelementptr inbounds %"struct.std::_Rb_tree_node_base", ptr %7, i32 0, i32 2
  store ptr %6, ptr %8, align 8
  %9 = getelementptr inbounds %"struct.std::_Rb_tree_header", ptr %3, i32 0, i32 0
  %10 = getelementptr inbounds %"struct.std::_Rb_tree_header", ptr %3, i32 0, i32 0
  %11 = getelementptr inbounds %"struct.std::_Rb_tree_node_base", ptr %10, i32 0, i32 3
  store ptr %9, ptr %11, align 8
  %12 = getelementptr inbounds %"struct.std::_Rb_tree_header", ptr %3, i32 0, i32 1
  store i64 0, ptr %12, align 8
  ret void
}

; Function Attrs: mustprogress nounwind uwtable
define linkonce_odr void @_ZNSt15__new_allocatorISt13_Rb_tree_nodeISt4pairIK7QString10ShaderInfoEEEC2Ev(ptr noundef nonnull align 1 dereferenceable(1) %0) unnamed_addr #4 comdat align 2 {
  %2 = alloca ptr, align 8
  store ptr %0, ptr %2, align 8
  ret void
}

; Function Attrs: mustprogress nounwind uwtable
define linkonce_odr void @_ZNSt15_Rb_tree_headerC2Ev(ptr noundef nonnull align 8 dereferenceable(40) %0) unnamed_addr #4 comdat align 2 personality ptr @__gxx_personality_v0 {
  %2 = alloca ptr, align 8
  store ptr %0, ptr %2, align 8
  %3 = load ptr, ptr %2, align 8
  %4 = getelementptr inbounds %"struct.std::_Rb_tree_header", ptr %3, i32 0, i32 0
  %5 = getelementptr inbounds %"struct.std::_Rb_tree_node_base", ptr %4, i32 0, i32 0
  store i32 0, ptr %5, align 8
  invoke void @_ZNSt15_Rb_tree_header8_M_resetEv(ptr noundef nonnull align 8 dereferenceable(40) %3)
          to label %6 unwind label %7

6:                                                ; preds = %1
  ret void

7:                                                ; preds = %1
  %8 = landingpad { ptr, i32 }
          catch ptr null
  %9 = extractvalue { ptr, i32 } %8, 0
  call void @__clang_call_terminate(ptr %9) #15
  unreachable
}

; Function Attrs: mustprogress nounwind uwtable
define linkonce_odr void @_ZNSt20_Rb_tree_key_compareISt4lessI7QStringEEC2Ev(ptr noundef nonnull align 1 dereferenceable(1) %0) unnamed_addr #4 comdat align 2 {
  %2 = alloca ptr, align 8
  store ptr %0, ptr %2, align 8
  ret void
}

; Function Attrs: mustprogress nounwind uwtable
define linkonce_odr void @_ZNSaISt13_Rb_tree_nodeISt4pairIK7QString10ShaderInfoEEEC2Ev(ptr noundef nonnull align 1 dereferenceable(1) %0) unnamed_addr #4 comdat align 2 {
  %2 = alloca ptr, align 8
  store ptr %0, ptr %2, align 8
  %3 = load ptr, ptr %2, align 8
  call void @_ZNSt15__new_allocatorISt13_Rb_tree_nodeISt4pairIK7QString10ShaderInfoEEEC2Ev(ptr noundef nonnull align 1 dereferenceable(1) %3) #3
  ret void
}

; Function Attrs: mustprogress nounwind uwtable
define linkonce_odr void @_ZNSt8_Rb_treeI7QStringSt4pairIKS0_10ShaderInfoESt10_Select1stIS4_ESt4lessIS0_ESaIS4_EE13_Rb_tree_implIS8_Lb1EEC2Ev(ptr noundef nonnull align 8 dereferenceable(48) %0) unnamed_addr #4 comdat align 2 {
  %2 = alloca ptr, align 8
  store ptr %0, ptr %2, align 8
  %3 = load ptr, ptr %2, align 8
  call void @_ZNSaISt13_Rb_tree_nodeISt4pairIK7QString10ShaderInfoEEEC2Ev(ptr noundef nonnull align 1 dereferenceable(1) %3) #3
  call void @_ZNSt20_Rb_tree_key_compareISt4lessI7QStringEEC2Ev(ptr noundef nonnull align 1 dereferenceable(1) %3) #3
  %4 = getelementptr inbounds i8, ptr %3, i64 8
  call void @_ZNSt15_Rb_tree_headerC2Ev(ptr noundef nonnull align 8 dereferenceable(40) %4) #3
  ret void
}

; Function Attrs: mustprogress nounwind uwtable
define linkonce_odr void @_ZNSt8_Rb_treeI7QStringSt4pairIKS0_10ShaderInfoESt10_Select1stIS4_ESt4lessIS0_ESaIS4_EEC2Ev(ptr noundef nonnull align 8 dereferenceable(48) %0) unnamed_addr #4 comdat align 2 {
  %2 = alloca ptr, align 8
  store ptr %0, ptr %2, align 8
  %3 = load ptr, ptr %2, align 8
  %4 = getelementptr inbounds %"class.std::_Rb_tree.17", ptr %3, i32 0, i32 0
  call void @_ZNSt8_Rb_treeI7QStringSt4pairIKS0_10ShaderInfoESt10_Select1stIS4_ESt4lessIS0_ESaIS4_EE13_Rb_tree_implIS8_Lb1EEC2Ev(ptr noundef nonnull align 8 dereferenceable(48) %4) #3
  ret void
}

; Function Attrs: mustprogress nounwind uwtable
define linkonce_odr void @_ZN13MeshLabPluginD2Ev(ptr noundef nonnull align 8 dereferenceable(24) %0) unnamed_addr #4 comdat align 2 {
  %2 = alloca ptr, align 8
  store ptr %0, ptr %2, align 8
  %3 = load ptr, ptr %2, align 8
  store ptr getelementptr inbounds ({ [7 x ptr] }, ptr @_ZTV13MeshLabPlugin, i32 0, i32 0, i32 2), ptr %3, align 8
  %4 = getelementptr inbounds %class.MeshLabPlugin, ptr %3, i32 0, i32 2
  call void @_ZN9QFileInfoD1Ev(ptr noundef nonnull align 8 dereferenceable(8) %4) #3
  ret void
}

; Function Attrs: mustprogress nounwind uwtable
define linkonce_odr void @_ZN19MeshLabPluginLoggerD2Ev(ptr noundef nonnull align 8 dereferenceable(16) %0) unnamed_addr #4 comdat align 2 {
  %2 = alloca ptr, align 8
  store ptr %0, ptr %2, align 8
  ret void
}

; Function Attrs: mustprogress nounwind uwtable
define linkonce_odr void @_ZN12RenderPluginD2Ev(ptr noundef nonnull align 8 dereferenceable(8) %0, ptr noundef %1) unnamed_addr #4 comdat align 2 {
  %3 = alloca ptr, align 8
  %4 = alloca ptr, align 8
  store ptr %0, ptr %3, align 8
  store ptr %1, ptr %4, align 8
  ret void
}

; Function Attrs: mustprogress nounwind uwtable
define linkonce_odr void @_ZN5QListIP7QActionEC2Ev(ptr noundef nonnull align 8 dereferenceable(8) %0) unnamed_addr #4 comdat align 2 {
  %2 = alloca ptr, align 8
  store ptr %0, ptr %2, align 8
  %3 = load ptr, ptr %2, align 8
  %4 = getelementptr inbounds %class.QList, ptr %3, i32 0, i32 0
  store ptr @_ZN9QListData11shared_nullE, ptr %4, align 8
  ret void
}

; Function Attrs: mustprogress nounwind uwtable
define linkonce_odr void @_ZNSt3mapI7QString10ShaderInfoSt4lessIS0_ESaISt4pairIKS0_S1_EEEC2Ev(ptr noundef nonnull align 8 dereferenceable(48) %0) unnamed_addr #4 comdat align 2 {
  %2 = alloca ptr, align 8
  store ptr %0, ptr %2, align 8
  %3 = load ptr, ptr %2, align 8
  %4 = getelementptr inbounds %"class.std::map.16", ptr %3, i32 0, i32 0
  call void @_ZNSt8_Rb_treeI7QStringSt4pairIKS0_10ShaderInfoESt10_Select1stIS4_ESt4lessIS0_ESaIS4_EEC2Ev(ptr noundef nonnull align 8 dereferenceable(48) %4) #3
  ret void
}

; Function Attrs: mustprogress nounwind uwtable
define linkonce_odr void @_ZN12RenderPluginC2Ev(ptr noundef nonnull align 8 dereferenceable(8) %0, ptr noundef %1) unnamed_addr #4 comdat align 2 {
  %3 = alloca ptr, align 8
  %4 = alloca ptr, align 8
  store ptr %0, ptr %3, align 8
  store ptr %1, ptr %4, align 8
  %5 = load ptr, ptr %3, align 8
  %6 = load ptr, ptr %4, align 8
  %7 = load ptr, ptr %6, align 8
  store ptr %7, ptr %5, align 8
  %8 = getelementptr inbounds ptr, ptr %6, i64 1
  %9 = load ptr, ptr %8, align 8
  %10 = load ptr, ptr %5, align 8
  %11 = getelementptr i8, ptr %10, i64 -24
  %12 = load i64, ptr %11, align 8
  %13 = getelementptr inbounds i8, ptr %5, i64 %12
  store ptr %9, ptr %13, align 8
  %14 = getelementptr inbounds ptr, ptr %6, i64 2
  %15 = load ptr, ptr %14, align 8
  %16 = load ptr, ptr %5, align 8
  %17 = getelementptr i8, ptr %16, i64 -32
  %18 = load i64, ptr %17, align 8
  %19 = getelementptr inbounds i8, ptr %5, i64 %18
  store ptr %15, ptr %19, align 8
  ret void
}

; Function Attrs: mustprogress uwtable
define linkonce_odr void @_ZN13MeshLabPluginC2Ev(ptr noundef nonnull align 8 dereferenceable(24) %0) unnamed_addr #5 comdat align 2 {
  %2 = alloca ptr, align 8
  store ptr %0, ptr %2, align 8
  %3 = load ptr, ptr %2, align 8
  store ptr getelementptr inbounds ({ [7 x ptr] }, ptr @_ZTV13MeshLabPlugin, i32 0, i32 0, i32 2), ptr %3, align 8
  %4 = getelementptr inbounds %class.MeshLabPlugin, ptr %3, i32 0, i32 1
  store i8 1, ptr %4, align 8
  %5 = getelementptr inbounds %class.MeshLabPlugin, ptr %3, i32 0, i32 2
  call void @_ZN9QFileInfoC1Ev(ptr noundef nonnull align 8 dereferenceable(8) %5)
  ret void
}

; Function Attrs: mustprogress uwtable
define void @_ZN22MeshShaderRenderPluginC1Ev(ptr noundef nonnull align 8 dereferenceable(104) %0) unnamed_addr #5 align 2 personality ptr @__gxx_personality_v0 {
  %2 = alloca ptr, align 8
  %3 = alloca ptr, align 8
  %4 = alloca i32, align 4
  store ptr %0, ptr %2, align 8
  %5 = load ptr, ptr %2, align 8
  %6 = getelementptr inbounds i8, ptr %5, i64 104
  call void @_ZN13MeshLabPluginC2Ev(ptr noundef nonnull align 8 dereferenceable(24) %6)
  %7 = getelementptr inbounds i8, ptr %5, i64 128
  invoke void @_ZN19MeshLabPluginLoggerC2Ev(ptr noundef nonnull align 8 dereferenceable(16) %7)
          to label %8 unwind label %19

8:                                                ; preds = %1
  invoke void @_ZN7QObjectC2EPS_(ptr noundef nonnull align 8 dereferenceable(16) %5, ptr noundef null)
          to label %9 unwind label %23

9:                                                ; preds = %8
  %10 = getelementptr inbounds i8, ptr %5, i64 16
  call void @_ZN12RenderPluginC2Ev(ptr noundef nonnull align 8 dereferenceable(8) %10, ptr noundef getelementptr inbounds ([7 x ptr], ptr @_ZTT22MeshShaderRenderPlugin, i64 0, i64 1))
  store ptr getelementptr inbounds ({ [24 x ptr], [12 x ptr], [11 x ptr], [5 x ptr] }, ptr @_ZTV22MeshShaderRenderPlugin, i32 0, i32 0, i32 4), ptr %5, align 8
  %11 = getelementptr inbounds i8, ptr %5, i64 16
  store ptr getelementptr inbounds ({ [24 x ptr], [12 x ptr], [11 x ptr], [5 x ptr] }, ptr @_ZTV22MeshShaderRenderPlugin, i32 0, i32 1, i32 4), ptr %11, align 8
  %12 = getelementptr inbounds i8, ptr %5, i64 104
  store ptr getelementptr inbounds ({ [24 x ptr], [12 x ptr], [11 x ptr], [5 x ptr] }, ptr @_ZTV22MeshShaderRenderPlugin, i32 0, i32 2, i32 6), ptr %12, align 8
  %13 = getelementptr inbounds i8, ptr %5, i64 128
  store ptr getelementptr inbounds ({ [24 x ptr], [12 x ptr], [11 x ptr], [5 x ptr] }, ptr @_ZTV22MeshShaderRenderPlugin, i32 0, i32 3, i32 3), ptr %13, align 8
  %14 = getelementptr inbounds %class.MeshShaderRenderPlugin, ptr %5, i32 0, i32 4
  call void @_ZNSt3mapI7QString10ShaderInfoSt4lessIS0_ESaISt4pairIKS0_S1_EEEC2Ev(ptr noundef nonnull align 8 dereferenceable(48) %14) #3
  %15 = getelementptr inbounds %class.MeshShaderRenderPlugin, ptr %5, i32 0, i32 6
  call void @_ZN5QListIP7QActionEC2Ev(ptr noundef nonnull align 8 dereferenceable(8) %15) #3
  %16 = getelementptr inbounds %class.MeshShaderRenderPlugin, ptr %5, i32 0, i32 5
  store i8 0, ptr %16, align 8
  %17 = getelementptr inbounds %class.MeshShaderRenderPlugin, ptr %5, i32 0, i32 7
  store ptr null, ptr %17, align 8
  invoke void @_ZN22MeshShaderRenderPlugin14initActionListEv(ptr noundef nonnull align 8 dereferenceable(104) %5)
          to label %18 unwind label %27

18:                                               ; preds = %9
  ret void

19:                                               ; preds = %1
  %20 = landingpad { ptr, i32 }
          cleanup
  %21 = extractvalue { ptr, i32 } %20, 0
  store ptr %21, ptr %3, align 8
  %22 = extractvalue { ptr, i32 } %20, 1
  store i32 %22, ptr %4, align 4
  br label %34

23:                                               ; preds = %8
  %24 = landingpad { ptr, i32 }
          cleanup
  %25 = extractvalue { ptr, i32 } %24, 0
  store ptr %25, ptr %3, align 8
  %26 = extractvalue { ptr, i32 } %24, 1
  store i32 %26, ptr %4, align 4
  br label %32

27:                                               ; preds = %9
  %28 = landingpad { ptr, i32 }
          cleanup
  %29 = extractvalue { ptr, i32 } %28, 0
  store ptr %29, ptr %3, align 8
  %30 = extractvalue { ptr, i32 } %28, 1
  store i32 %30, ptr %4, align 4
  call void @_ZN5QListIP7QActionED2Ev(ptr noundef nonnull align 8 dereferenceable(8) %15) #3
  call void @_ZNSt3mapI7QString10ShaderInfoSt4lessIS0_ESaISt4pairIKS0_S1_EEED2Ev(ptr noundef nonnull align 8 dereferenceable(48) %14) #3
  %31 = getelementptr inbounds i8, ptr %5, i64 16
  call void @_ZN12RenderPluginD2Ev(ptr noundef nonnull align 8 dereferenceable(8) %31, ptr noundef getelementptr inbounds ([7 x ptr], ptr @_ZTT22MeshShaderRenderPlugin, i64 0, i64 1)) #3
  call void @_ZN7QObjectD2Ev(ptr noundef nonnull align 8 dereferenceable(16) %5) #3
  br label %32

32:                                               ; preds = %27, %23
  %33 = getelementptr inbounds i8, ptr %5, i64 128
  call void @_ZN19MeshLabPluginLoggerD2Ev(ptr noundef nonnull align 8 dereferenceable(16) %33) #3
  br label %34

34:                                               ; preds = %32, %19
  %35 = getelementptr inbounds i8, ptr %5, i64 104
  call void @_ZN13MeshLabPluginD2Ev(ptr noundef nonnull align 8 dereferenceable(24) %35) #3
  br label %36

36:                                               ; preds = %34
  %37 = load ptr, ptr %3, align 8
  %38 = load i32, ptr %4, align 4
  %39 = insertvalue { ptr, i32 } poison, ptr %37, 0
  %40 = insertvalue { ptr, i32 } %39, i32 %38, 1
  resume { ptr, i32 } %40
}