; Function Attrs: mustprogress uwtable
define void @_ZN22MeshShaderRenderPluginC1Ev(ptr noundef nonnull align 8 dereferenceable(104) %0) unnamed_addr #9 align 2 personality ptr @__gxx_personality_v0 {
  %2 = getelementptr inbounds i8, ptr %0, i64 104
  store ptr getelementptr inbounds ({ [7 x ptr] }, ptr @_ZTV13MeshLabPlugin, i64 0, i32 0, i64 2), ptr %2, align 8
  %3 = getelementptr inbounds i8, ptr %0, i64 112
  store i8 1, ptr %3, align 8
  %4 = getelementptr inbounds i8, ptr %0, i64 120
  tail call void @_ZN9QFileInfoC1Ev(ptr noundef nonnull align 8 dereferenceable(8) %4)
  %5 = getelementptr inbounds i8, ptr %0, i64 128
  invoke void @_ZN19MeshLabPluginLoggerC2Ev(ptr noundef nonnull align 8 dereferenceable(16) %5)
          to label %6 unwind label %28

6:                                                ; preds = %1
  invoke void @_ZN7QObjectC2EPS_(ptr noundef nonnull align 8 dereferenceable(16) %0, ptr noundef null)
          to label %7 unwind label %30

7:                                                ; preds = %6
  %8 = getelementptr inbounds i8, ptr %0, i64 16
  %9 = load ptr, ptr getelementptr inbounds ([7 x ptr], ptr @_ZTT22MeshShaderRenderPlugin, i64 0, i64 1), align 8
  store ptr %9, ptr %8, align 8
  %10 = load ptr, ptr getelementptr inbounds ([7 x ptr], ptr @_ZTT22MeshShaderRenderPlugin, i64 0, i64 2), align 8
  %11 = getelementptr i8, ptr %9, i64 -24
  %12 = load i64, ptr %11, align 8
  %13 = getelementptr inbounds i8, ptr %8, i64 %12
  store ptr %10, ptr %13, align 8
  %14 = load ptr, ptr getelementptr inbounds ([7 x ptr], ptr @_ZTT22MeshShaderRenderPlugin, i64 0, i64 3), align 8
  %15 = load ptr, ptr %8, align 8
  %16 = getelementptr i8, ptr %15, i64 -32
  %17 = load i64, ptr %16, align 8
  %18 = getelementptr inbounds i8, ptr %8, i64 %17
  store ptr %14, ptr %18, align 8
  store ptr getelementptr inbounds ({ [24 x ptr], [12 x ptr], [11 x ptr], [5 x ptr] }, ptr @_ZTV22MeshShaderRenderPlugin, i64 0, i32 0, i64 4), ptr %0, align 8
  store ptr getelementptr inbounds ({ [24 x ptr], [12 x ptr], [11 x ptr], [5 x ptr] }, ptr @_ZTV22MeshShaderRenderPlugin, i64 0, i32 1, i64 4), ptr %8, align 8
  store ptr getelementptr inbounds ({ [24 x ptr], [12 x ptr], [11 x ptr], [5 x ptr] }, ptr @_ZTV22MeshShaderRenderPlugin, i64 0, i32 2, i64 6), ptr %2, align 8
  store ptr getelementptr inbounds ({ [24 x ptr], [12 x ptr], [11 x ptr], [5 x ptr] }, ptr @_ZTV22MeshShaderRenderPlugin, i64 0, i32 3, i64 3), ptr %5, align 8
  %19 = getelementptr inbounds i8, ptr %0, i64 40
  store i32 0, ptr %19, align 8
  %20 = getelementptr inbounds i8, ptr %0, i64 48
  store ptr null, ptr %20, align 8
  %21 = getelementptr inbounds i8, ptr %0, i64 56
  store ptr %19, ptr %21, align 8
  %22 = getelementptr inbounds i8, ptr %0, i64 64
  store ptr %19, ptr %22, align 8
  %23 = getelementptr inbounds i8, ptr %0, i64 72
  store i64 0, ptr %23, align 8
  %24 = getelementptr inbounds i8, ptr %0, i64 88
  store ptr @_ZN9QListData11shared_nullE, ptr %24, align 8
  %25 = getelementptr inbounds i8, ptr %0, i64 80
  store i8 0, ptr %25, align 8
  %26 = getelementptr inbounds i8, ptr %0, i64 96
  store ptr null, ptr %26, align 8
  invoke void @_ZN22MeshShaderRenderPlugin14initActionListEv(ptr noundef nonnull align 8 dereferenceable(104) %0)
          to label %27 unwind label %32

27:                                               ; preds = %7
  ret void

28:                                               ; preds = %1
  %29 = landingpad { ptr, i32 }
          cleanup
  br label %35

30:                                               ; preds = %6
  %31 = landingpad { ptr, i32 }
          cleanup
  br label %35

32:                                               ; preds = %7
  %33 = landingpad { ptr, i32 }
          cleanup
  %34 = getelementptr inbounds i8, ptr %0, i64 32
  tail call void @_ZN5QListIP7QActionED2Ev(ptr noundef nonnull align 8 dereferenceable(8) %24) #22
  tail call void @_ZNSt3mapI7QString10ShaderInfoSt4lessIS0_ESaISt4pairIKS0_S1_EEED2Ev(ptr noundef nonnull align 8 dereferenceable(48) %34) #22
  tail call void @_ZN7QObjectD2Ev(ptr noundef nonnull align 8 dereferenceable(16) %0) #22
  br label %35

35:                                               ; preds = %30, %32, %28
  %.pn.pn = phi { ptr, i32 } [ %29, %28 ], [ %33, %32 ], [ %31, %30 ]
  store ptr getelementptr inbounds ({ [7 x ptr] }, ptr @_ZTV13MeshLabPlugin, i64 0, i32 0, i64 2), ptr %2, align 8
  tail call void @_ZN9QFileInfoD1Ev(ptr noundef nonnull align 8 dereferenceable(8) %4) #22
  resume { ptr, i32 } %.pn.pn
}